; Function Attrs: mustprogress uwtable
define noundef double @_ZN5Ipopt16AdaptiveMuUpdate10NewFixedMuEv(ptr noundef nonnull align 8 dereferenceable(312) %0) local_unnamed_addr #3 align 2 {
  %2 = alloca double, align 8
  %3 = getelementptr inbounds i8, ptr %0, i64 200
  %4 = load ptr, ptr %3, align 8
  %.not = icmp eq ptr %4, null
  br i1 %.not, label %.critedge, label %5

5:                                                ; preds = %1
  %6 = getelementptr inbounds i8, ptr %0, i64 72
  %7 = load double, ptr %6, align 8
  %8 = getelementptr inbounds i8, ptr %0, i64 80
  %9 = load double, ptr %8, align 8
  %10 = fcmp olt double %7, %9
  %.sroa.speculated.i = select i1 %10, double %9, double %7
  %11 = getelementptr inbounds i8, ptr %0, i64 64
  %12 = load double, ptr %11, align 8
  %13 = load ptr, ptr %4, align 8
  %14 = getelementptr inbounds i8, ptr %13, i64 24
  %15 = load ptr, ptr %14, align 8
  %16 = call noundef zeroext i1 %15(ptr noundef nonnull align 8 dereferenceable(49) %4, double noundef %.sroa.speculated.i, double noundef %12, ptr noundef nonnull align 8 dereferenceable(8) %2)
  br i1 %16, label %..critedge4_crit_edge, label %17

..critedge4_crit_edge:                            ; preds = %5
  %.pre = load double, ptr %2, align 8
  br label %.critedge4

17:                                               ; preds = %5
  %18 = getelementptr inbounds i8, ptr %0, i64 16
  %19 = load ptr, ptr %18, align 8
  %20 = load ptr, ptr %19, align 8
  %21 = getelementptr inbounds i8, ptr %20, i64 16
  %22 = load ptr, ptr %21, align 8
  call void (ptr, i32, i32, ptr, ...) %22(ptr noundef nonnull align 8 dereferenceable(40) %19, i32 noundef 6, i32 noundef 8, ptr noundef nonnull @.str.75)
  br label %.critedge

.critedge:                                        ; preds = %1, %17
  %23 = getelementptr inbounds i8, ptr %0, i64 112
  %24 = load double, ptr %23, align 8
  %25 = getelementptr inbounds i8, ptr %0, i64 40
  %26 = load ptr, ptr %25, align 8
  %27 = call noundef double @_ZN5Ipopt25IpoptCalculatedQuantities15curr_avrg_complEv(ptr noundef nonnull align 8 dereferenceable(2185) %26)
  %28 = fmul double %24, %27
  store double %28, ptr %2, align 8
  br label %.critedge4

.critedge4:                                       ; preds = %..critedge4_crit_edge, %.critedge
  %29 = phi double [ %.pre, %..critedge4_crit_edge ], [ %28, %.critedge ]
  %30 = call noundef double @_ZN5Ipopt16AdaptiveMuUpdate18lower_mu_safeguardEv(ptr noundef nonnull align 8 dereferenceable(312) %0)
  %31 = fcmp olt double %29, %30
  %.sroa.speculated.i5 = select i1 %31, double %30, double %29
  %32 = fcmp ogt double %.sroa.speculated.i5, 1.000000e+19
  %.sroa.speculated.i6 = select i1 %32, double 1.000000e+19, double %.sroa.speculated.i5
  %33 = getelementptr inbounds i8, ptr %0, i64 72
  %34 = load double, ptr %33, align 8
  %35 = fcmp olt double %.sroa.speculated.i6, %34
  %.sroa.speculated.i7 = select i1 %35, double %34, double %.sroa.speculated.i6
  %36 = getelementptr inbounds i8, ptr %0, i64 64
  %37 = load double, ptr %36, align 8
  %38 = fcmp olt double %37, %.sroa.speculated.i7
  %.sroa.speculated.i8 = select i1 %38, double %37, double %.sroa.speculated.i7
  ret double %.sroa.speculated.i8
}